target datalayout = "e-m:e-p270:32:32-p271:32:32-p272:64:64-i64:64-i128:128-f80:128-n8:16:32:64-S128"
target triple = "x86_64-pc-linux-gnu"

%"class.pxrInternal_v0_24__pxrReserved__::HdContainerDataSource" = type { %"class.pxrInternal_v0_24__pxrReserved__::HdDataSourceBase" }
%"class.pxrInternal_v0_24__pxrReserved__::HdDataSourceBase" = type { ptr }
%"class.pxrInternal_v0_24__pxrReserved__::UsdGeomXformable::XformQuery" = type <{ %"class.std::vector.41", i8, [7 x i8] }>
%"class.std::vector.41" = type { %"struct.std::_Vector_base.42" }
%"struct.std::_Vector_base.42" = type { %"struct.std::_Vector_base<pxrInternal_v0_24__pxrReserved__::UsdGeomXformOp, std::allocator<pxrInternal_v0_24__pxrReserved__::UsdGeomXformOp>>::_Vector_impl" }
%"struct.std::_Vector_base<pxrInternal_v0_24__pxrReserved__::UsdGeomXformOp, std::allocator<pxrInternal_v0_24__pxrReserved__::UsdGeomXformOp>>::_Vector_impl" = type { %"struct.std::_Vector_base<pxrInternal_v0_24__pxrReserved__::UsdGeomXformOp, std::allocator<pxrInternal_v0_24__pxrReserved__::UsdGeomXformOp>>::_Vector_impl_data" }
%"struct.std::_Vector_base<pxrInternal_v0_24__pxrReserved__::UsdGeomXformOp, std::allocator<pxrInternal_v0_24__pxrReserved__::UsdGeomXformOp>>::_Vector_impl_data" = type { ptr, ptr, ptr }
%"class.pxrInternal_v0_24__pxrReserved__::UsdImagingDataSourceXform" = type { %"class.pxrInternal_v0_24__pxrReserved__::HdContainerDataSource", %"class.pxrInternal_v0_24__pxrReserved__::UsdGeomXformable::XformQuery", ptr }

@_ZTVN32pxrInternal_v0_24__pxrReserved__16HdDataSourceBaseE = linkonce_odr unnamed_addr constant { [4 x ptr] } { [4 x ptr] [ptr null, ptr @_ZTIN32pxrInternal_v0_24__pxrReserved__16HdDataSourceBaseE, ptr @__cxa_pure_virtual, ptr @__cxa_pure_virtual] }, comdat, align 8

; Function Attrs: mustprogress nounwind uwtable
define linkonce_odr void @_ZN32pxrInternal_v0_24__pxrReserved__16HdDataSourceBaseC2Ev(ptr noundef nonnull align 8 dereferenceable(8) %0) unnamed_addr #1 comdat align 2 {
  %2 = alloca ptr, align 8
  store ptr %0, ptr %2, align 8
  %3 = load ptr, ptr %2, align 8
  store ptr getelementptr inbounds inrange(-16, 16) ({ [4 x ptr] }, ptr @_ZTVN32pxrInternal_v0_24__pxrReserved__16HdDataSourceBaseE, i32 0, i32 0, i32 2), ptr %3, align 8
  ret void
}

; Function Attrs: mustprogress nounwind uwtable
define linkonce_odr void @_ZN32pxrInternal_v0_24__pxrReserved__21HdContainerDataSourceD2Ev(ptr noundef nonnull align 8 dereferenceable(8) %0) unnamed_addr #1 comdat align 2 {
  %2 = alloca ptr, align 8
  store ptr %0, ptr %2, align 8
  %3 = load ptr, ptr %2, align 8
  call void @_ZN32pxrInternal_v0_24__pxrReserved__16HdDataSourceBaseD2Ev(ptr noundef nonnull align 8 dereferenceable(8) %3) #3
  ret void
}

; Function Attrs: mustprogress uwtable
define linkonce_odr void @_ZN32pxrInternal_v0_24__pxrReserved__16UsdGeomXformable10XformQueryC2ERKS1_(ptr noundef nonnull align 8 dereferenceable(25) %0, ptr noundef nonnull align 8 dereferenceable(25) %1) unnamed_addr #0 comdat align 2 {
  %3 = alloca ptr, align 8
  %4 = alloca ptr, align 8
  store ptr %0, ptr %3, align 8
  store ptr %1, ptr %4, align 8
  %5 = load ptr, ptr %3, align 8
  %6 = getelementptr inbounds nuw %"class.pxrInternal_v0_24__pxrReserved__::UsdGeomXformable::XformQuery", ptr %5, i32 0, i32 0
  %7 = load ptr, ptr %4, align 8
  %8 = getelementptr inbounds nuw %"class.pxrInternal_v0_24__pxrReserved__::UsdGeomXformable::XformQuery", ptr %7, i32 0, i32 0
  call void @_ZNSt6vectorIN32pxrInternal_v0_24__pxrReserved__14UsdGeomXformOpESaIS1_EEC2ERKS3_(ptr noundef nonnull align 8 dereferenceable(24) %6, ptr noundef nonnull align 8 dereferenceable(24) %8)
  %9 = getelementptr inbounds nuw %"class.pxrInternal_v0_24__pxrReserved__::UsdGeomXformable::XformQuery", ptr %5, i32 0, i32 1
  %10 = load ptr, ptr %4, align 8
  %11 = getelementptr inbounds nuw %"class.pxrInternal_v0_24__pxrReserved__::UsdGeomXformable::XformQuery", ptr %10, i32 0, i32 1
  %12 = load i8, ptr %11, align 8
  %13 = trunc i8 %12 to i1
  %14 = zext i1 %13 to i8
  store i8 %14, ptr %9, align 8
  ret void
}

; Function Attrs: mustprogress nounwind uwtable
define linkonce_odr void @_ZN32pxrInternal_v0_24__pxrReserved__21HdContainerDataSourceC2Ev(ptr noundef nonnull align 8 dereferenceable(8) %0) unnamed_addr #1 comdat align 2 {
  %2 = alloca ptr, align 8
  store ptr %0, ptr %2, align 8
  %3 = load ptr, ptr %2, align 8
  call void @_ZN32pxrInternal_v0_24__pxrReserved__16HdDataSourceBaseC2Ev(ptr noundef nonnull align 8 dereferenceable(8) %3) #3
  store ptr getelementptr inbounds inrange(-16, 32) ({ [6 x ptr] }, ptr @_ZTVN32pxrInternal_v0_24__pxrReserved__21HdContainerDataSourceE, i32 0, i32 0, i32 2), ptr %3, align 8
  ret void
}

; Function Attrs: mustprogress uwtable
define void @_ZN32pxrInternal_v0_24__pxrReserved__25UsdImagingDataSourceXformC2ERKNS_16UsdGeomXformable10XformQueryERKNS_7SdfPathERKNS_32UsdImagingDataSourceStageGlobalsE(ptr noundef nonnull align 8 dereferenceable(48) %0, ptr noundef nonnull align 8 dereferenceable(25) %1, ptr noundef nonnull align 4 dereferenceable(8) %2, ptr noundef nonnull align 8 dereferenceable(8) %3) unnamed_addr #0 align 2 personality ptr @__gxx_personality_v0 {
  %5 = alloca ptr, align 8
  %6 = alloca ptr, align 8
  %7 = alloca ptr, align 8
  %8 = alloca ptr, align 8
  %9 = alloca ptr, align 8
  %10 = alloca i32, align 4
  store ptr %0, ptr %5, align 8
  store ptr %1, ptr %6, align 8
  store ptr %2, ptr %7, align 8
  store ptr %3, ptr %8, align 8
  %11 = load ptr, ptr %5, align 8
  call void @_ZN32pxrInternal_v0_24__pxrReserved__21HdContainerDataSourceC2Ev(ptr noundef nonnull align 8 dereferenceable(8) %11) #3
  store ptr getelementptr inbounds inrange(-16, 32) ({ [6 x ptr] }, ptr @_ZTVN32pxrInternal_v0_24__pxrReserved__25UsdImagingDataSourceXformE, i32 0, i32 0, i32 2), ptr %11, align 8
  %12 = getelementptr inbounds nuw %"class.pxrInternal_v0_24__pxrReserved__::UsdImagingDataSourceXform", ptr %11, i32 0, i32 1
  %13 = load ptr, ptr %6, align 8
  invoke void @_ZN32pxrInternal_v0_24__pxrReserved__16UsdGeomXformable10XformQueryC2ERKS1_(ptr noundef nonnull align 8 dereferenceable(25) %12, ptr noundef nonnull align 8 dereferenceable(25) %13)
          to label %14 unwind label %30

14:                                               ; preds = %4
  %15 = getelementptr inbounds nuw %"class.pxrInternal_v0_24__pxrReserved__::UsdImagingDataSourceXform", ptr %11, i32 0, i32 2
  %16 = load ptr, ptr %8, align 8
  store ptr %16, ptr %15, align 8
  %17 = getelementptr inbounds nuw %"class.pxrInternal_v0_24__pxrReserved__::UsdImagingDataSourceXform", ptr %11, i32 0, i32 1
  %18 = invoke noundef zeroext i1 @_ZNK32pxrInternal_v0_24__pxrReserved__16UsdGeomXformable10XformQuery27TransformMightBeTimeVaryingEv(ptr noundef nonnull align 8 dereferenceable(25) %17)
          to label %19 unwind label %34

19:                                               ; preds = %14
  br i1 %18, label %20, label %38

20:                                               ; preds = %19
  %21 = getelementptr inbounds nuw %"class.pxrInternal_v0_24__pxrReserved__::UsdImagingDataSourceXform", ptr %11, i32 0, i32 2
  %22 = load ptr, ptr %21, align 8
  %23 = load ptr, ptr %7, align 8
  %24 = invoke noundef nonnull align 8 dereferenceable(56) ptr @_ZN32pxrInternal_v0_24__pxrReserved__13HdXformSchema17GetDefaultLocatorEv()
          to label %25 unwind label %34

25:                                               ; preds = %20
  %26 = load ptr, ptr %22, align 8
  %27 = getelementptr inbounds ptr, ptr %26, i64 3
  %28 = load ptr, ptr %27, align 8
  invoke void %28(ptr noundef nonnull align 8 dereferenceable(8) %22, ptr noundef nonnull align 4 dereferenceable(8) %23, ptr noundef nonnull align 8 dereferenceable(56) %24)
          to label %29 unwind label %34

29:                                               ; preds = %25
  br label %38

30:                                               ; preds = %4
  %31 = landingpad { ptr, i32 }
          cleanup
  %32 = extractvalue { ptr, i32 } %31, 0
  store ptr %32, ptr %9, align 8
  %33 = extractvalue { ptr, i32 } %31, 1
  store i32 %33, ptr %10, align 4
  br label %39

34:                                               ; preds = %25, %20, %14
  %35 = landingpad { ptr, i32 }
          cleanup
  %36 = extractvalue { ptr, i32 } %35, 0
  store ptr %36, ptr %9, align 8
  %37 = extractvalue { ptr, i32 } %35, 1
  store i32 %37, ptr %10, align 4
  call void @_ZN32pxrInternal_v0_24__pxrReserved__16UsdGeomXformable10XformQueryD2Ev(ptr noundef nonnull align 8 dereferenceable(25) %12) #3
  br label %39

38:                                               ; preds = %29, %19
  ret void

39:                                               ; preds = %34, %30
  call void @_ZN32pxrInternal_v0_24__pxrReserved__21HdContainerDataSourceD2Ev(ptr noundef nonnull align 8 dereferenceable(8) %11) #3
  br label %40

40:                                               ; preds = %39
  %41 = load ptr, ptr %9, align 8
  %42 = load i32, ptr %10, align 4
  %43 = insertvalue { ptr, i32 } poison, ptr %41, 0
  %44 = insertvalue { ptr, i32 } %43, i32 %42, 1
  resume { ptr, i32 } %44
}