; Function Attrs: mustprogress uwtable
define void @_ZN32pxrInternal_v0_24__pxrReserved__25UsdImagingDataSourceXformC2ERKNS_16UsdGeomXformable10XformQueryERKNS_7SdfPathERKNS_32UsdImagingDataSourceStageGlobalsE(ptr noundef nonnull align 8 dereferenceable(48) initializes((0, 8)) %0, ptr noundef nonnull align 8 dereferenceable(25) %1, ptr noundef nonnull align 4 dereferenceable(8) %2, ptr noundef nonnull align 8 dereferenceable(8) %3) unnamed_addr #0 align 2 personality ptr @__gxx_personality_v0 {
  store ptr getelementptr inbounds nuw inrange(-16, 32) (i8, ptr @_ZTVN32pxrInternal_v0_24__pxrReserved__25UsdImagingDataSourceXformE, i64 16), ptr %0, align 8
  %5 = getelementptr inbounds nuw i8, ptr %0, i64 8
  invoke void @_ZNSt6vectorIN32pxrInternal_v0_24__pxrReserved__14UsdGeomXformOpESaIS1_EEC2ERKS3_(ptr noundef nonnull align 8 dereferenceable(25) %5, ptr noundef nonnull align 8 dereferenceable(25) %1)
          to label %6 unwind label %21

6:                                                ; preds = %4
  %7 = getelementptr inbounds nuw i8, ptr %0, i64 32
  %8 = getelementptr inbounds nuw i8, ptr %1, i64 24
  %9 = load i8, ptr %8, align 8
  %10 = and i8 %9, 1
  store i8 %10, ptr %7, align 8
  %11 = getelementptr inbounds nuw i8, ptr %0, i64 40
  store ptr %3, ptr %11, align 8
  %12 = invoke noundef zeroext i1 @_ZNK32pxrInternal_v0_24__pxrReserved__16UsdGeomXformable10XformQuery27TransformMightBeTimeVaryingEv(ptr noundef nonnull align 8 dereferenceable(25) %5)
          to label %13 unwind label %23

13:                                               ; preds = %6
  br i1 %12, label %14, label %25

14:                                               ; preds = %13
  %15 = load ptr, ptr %11, align 8
  %16 = invoke noundef nonnull align 8 dereferenceable(56) ptr @_ZN32pxrInternal_v0_24__pxrReserved__13HdXformSchema17GetDefaultLocatorEv()
          to label %17 unwind label %23

17:                                               ; preds = %14
  %18 = load ptr, ptr %15, align 8
  %19 = getelementptr inbounds nuw i8, ptr %18, i64 24
  %20 = load ptr, ptr %19, align 8
  invoke void %20(ptr noundef nonnull align 8 dereferenceable(8) %15, ptr noundef nonnull align 4 dereferenceable(8) %2, ptr noundef nonnull align 8 dereferenceable(56) %16)
          to label %25 unwind label %23

21:                                               ; preds = %4
  %22 = landingpad { ptr, i32 }
          cleanup
  br label %26

23:                                               ; preds = %17, %14, %6
  %24 = landingpad { ptr, i32 }
          cleanup
  tail call void @_ZN32pxrInternal_v0_24__pxrReserved__16UsdGeomXformable10XformQueryD2Ev(ptr noundef nonnull align 8 dereferenceable(25) %5) #23
  br label %26

25:                                               ; preds = %17, %13
  ret void

26:                                               ; preds = %23, %21
  %.pn = phi { ptr, i32 } [ %24, %23 ], [ %22, %21 ]
  tail call void @_ZN32pxrInternal_v0_24__pxrReserved__16HdDataSourceBaseD2Ev(ptr noundef nonnull align 8 dereferenceable(8) %0) #23
  resume { ptr, i32 } %.pn
}